; Function Attrs: nounwind uwtable
define void @bufferevent_rate_limit_group_free(ptr noundef %0) local_unnamed_addr #3 {
  %2 = getelementptr inbounds nuw i8, ptr %0, i64 264
  %3 = load ptr, ptr %2, align 8
  %.not = icmp eq ptr %3, null
  br i1 %.not, label %7, label %4

4:                                                ; preds = %1
  %5 = load ptr, ptr getelementptr inbounds nuw (i8, ptr @evthread_lock_fns_, i64 24), align 8
  %6 = tail call i32 %5(i32 noundef 0, ptr noundef nonnull %3) #10
  br label %7

7:                                                ; preds = %1, %4
  %8 = getelementptr inbounds nuw i8, ptr %0, i64 136
  %9 = tail call i32 @event_del(ptr noundef nonnull %8) #10
  %10 = load ptr, ptr %2, align 8
  %.not13 = icmp eq ptr %10, null
  br i1 %.not13, label %.thread, label %11

11:                                               ; preds = %7
  %12 = load ptr, ptr getelementptr inbounds nuw (i8, ptr @evthread_lock_fns_, i64 32), align 8
  %13 = tail call i32 %12(i32 noundef 0, ptr noundef nonnull %10) #10
  %.pre = load ptr, ptr %2, align 8
  %14 = icmp ne ptr %.pre, null
  %15 = load ptr, ptr getelementptr inbounds nuw (i8, ptr @evthread_lock_fns_, i64 16), align 8
  %16 = icmp ne ptr %15, null
  %or.cond = select i1 %14, i1 %16, i1 false
  br i1 %or.cond, label %17, label %.thread

17:                                               ; preds = %11
  tail call void %15(ptr noundef nonnull %.pre, i32 noundef 1) #10
  br label %.thread

.thread:                                          ; preds = %7, %17, %11
  tail call void @event_mm_free_(ptr noundef nonnull %0) #10
  ret void
}